; Function Attrs: mustprogress uwtable
define void @_ZN7Imf_3_211StdOSStream5writeEPKci(ptr noundef nonnull align 8 dereferenceable(416) %this, ptr noundef %c, i32 noundef %n) unnamed_addr #3 align 2 {
entry:
  %call.i = tail call ptr @__errno_location() #13
  store i32 0, ptr %call.i, align 4
  %_os = getelementptr inbounds i8, ptr %this, i64 40
  %conv = sext i32 %n to i64
  %call = tail call noundef nonnull align 8 dereferenceable(8) ptr @_ZNSo5writeEPKcl(ptr noundef nonnull align 8 dereferenceable(8) %_os, ptr noundef %c, i64 noundef %conv)
  tail call fastcc void @_ZN7Imf_3_212_GLOBAL__N_110checkErrorERSo(ptr noundef nonnull align 8 dereferenceable(8) %_os)
  ret void
}